; Function Attrs: mustprogress nofree norecurse nosync nounwind willreturn memory(argmem: write) uwtable
define void @ZSTD_registerSequenceProducer(ptr noundef writeonly captures(none) initializes((216, 232)) %0, ptr noundef %1, ptr noundef %2) local_unnamed_addr #6 {
  %.not.i = icmp eq ptr %2, null
  %spec.select.i = select i1 %.not.i, ptr null, ptr %1
  %4 = getelementptr inbounds nuw i8, ptr %0, i64 224
  store ptr %2, ptr %4, align 8, !tbaa !129
  %5 = getelementptr inbounds nuw i8, ptr %0, i64 216
  store ptr %spec.select.i, ptr %5, align 8, !tbaa !372
  ret void
}